; Function Attrs: mustprogress nounwind uwtable
define hidden void @_ZN5clang7targets22WindowsARM64TargetInfo13setDataLayoutEv(ptr noundef nonnull align 8 dereferenceable(656) %0) unnamed_addr #1 align 2 {
  %2 = getelementptr inbounds nuw i8, ptr %0, i64 652
  %3 = load i32, ptr %2, align 4
  %4 = icmp eq i32 %3, 5
  %5 = select i1 %4, ptr @.str.540, ptr @.str.547
  %6 = select i1 %4, i64 38, i64 53
  %7 = select i1 %4, ptr @.str.539, ptr @.str.537
  tail call void @_ZN5clang10TargetInfo15resetDataLayoutEN4llvm9StringRefEPKc(ptr noundef nonnull align 8 dereferenceable(489) %0, ptr nonnull %5, i64 %6, ptr noundef nonnull %7) #23
  ret void
}